; Function Attrs: mustprogress nofree norecurse nosync nounwind willreturn memory(argmem: read) uwtable
define i32 @llama_n_vocab(ptr nocapture noundef readonly %model) local_unnamed_addr #13 {
entry:
  %id_to_token = getelementptr inbounds i8, ptr %model, i64 192
  %_M_finish.i = getelementptr inbounds i8, ptr %model, i64 200
  %0 = load ptr, ptr %_M_finish.i, align 8
  %1 = load ptr, ptr %id_to_token, align 8
  %sub.ptr.lhs.cast.i = ptrtoint ptr %0 to i64
  %sub.ptr.rhs.cast.i = ptrtoint ptr %1 to i64
  %sub.ptr.sub.i = sub i64 %sub.ptr.lhs.cast.i, %sub.ptr.rhs.cast.i
  %sub.ptr.div.i = sdiv exact i64 %sub.ptr.sub.i, 40
  %conv = trunc i64 %sub.ptr.div.i to i32
  ret i32 %conv
}